(dp1
S'output'
p2
S'Unable to open included view file: C:\\Users\\Merian Herrera\\Desktop\\web2py\\applications\\super_zapatos\\views\\menu.html'
p3
sS'layer'
p4
S"'layout.html'"
p5
sS'code'
p6
S'<!--[if HTML5]><![endif]-->\n<!DOCTYPE html>\n<!-- paulirish.com/2008/conditional-stylesheets-vs-css-hacks-answer-neither/ -->\n<!--[if lt IE 7]><html class="ie ie6 ie-lte9 ie-lte8 ie-lte7 no-js" lang="{{=T.accepted_language or \'en\'}}"> <![endif]-->\n<!--[if IE 7]><html class="ie ie7 ie-lte9 ie-lte8 ie-lte7 no-js" lang="{{=T.accepted_language or \'en\'}}"> <![endif]-->\n<!--[if IE 8]><html class="ie ie8 ie-lte9 ie-lte8 no-js" lang="{{=T.accepted_language or \'en\'}}"> <![endif]-->\n<!--[if IE 9]><html class="ie9 ie-lte9 no-js" lang="{{=T.accepted_language or \'en\'}}"> <![endif]-->\n<!--[if (gt IE 9)|!(IE)]><!--> <html class="no-js" lang="{{=T.accepted_language or \'en\'}}"> <!--<![endif]-->\n<head>\n<title>{{=response.title or request.application}}</title>\n  <!--[if !HTML5]>\n      <meta http-equiv="X-UA-Compatible" content="IE=edge{{=not request.is_local and \',chrome=1\' or \'\'}}">\n  <![endif]-->\n  <!-- www.phpied.com/conditional-comments-block-downloads/ -->\n  <!-- Always force latest IE rendering engine\n       (even in intranet) & Chrome Frame\n       Remove this if you use the .htaccess -->\n\t   \n  <meta charset="utf-8" />\n\n  <!-- http://dev.w3.org/html5/markup/meta.name.html -->\n  <meta name="application-name" content="{{=request.application}}" />\n\n  <!-- Speaking of Google, don\'t forget to set your site up:\n       http://google.com/webmasters -->\n  <meta name="google-site-verification" content="" />\n\n  <!--  Mobile Viewport Fix\n        j.mp/mobileviewport & davidbcalhoun.com/2010/viewport-metatag\n        device-width: Occupy full width of the screen in its current orientation\n        initial-scale = 1.0 retains dimensions instead of zooming out if page height > device height\n        user-scalable = yes allows the user to zoom in -->\n  <meta name="viewport" content="width=device-width, initial-scale=1.0" />\n\n  <!--Favicon-->\n  <link rel="shortcut icon" href="{{=URL(\'static\',\'images/favicon.ico\')}}" type="image/x-icon">\n  <link rel="apple-touch-icon" href="{{=URL(\'static\',\'images/favicon.png\')}}">\n\n  <!--import styles-->\n  <link rel="stylesheet" href="//netdna.bootstrapcdn.com/bootstrap/3.1.1/css/bootstrap.min.css">\n  <link rel="stylesheet" href="{{=URL(\'static\',\'css/style.css\')}}">\n\n  <!-- All JavaScript at the bottom, except for Modernizr which enables HTML5 elements & feature detects -->\n  <script src="{{=URL(\'static\',\'js/modernizr.custom.js\')}}"></script>\n\n  {{include \'web2py_ajax.html\'}}\n\n  {{\n  # using sidebars need to know what sidebar you want to use\n  left_sidebar_enabled = globals().get(\'left_sidebar_enabled\',False)\n  right_sidebar_enabled = globals().get(\'right_sidebar_enabled\',False)\n  middle_columns = {0:\'span12\',1:\'span9\',2:\'span6\'}[\n    (left_sidebar_enabled and 1 or 0)+(right_sidebar_enabled and 1 or 0)]\n  }}\n\n  <!-- uncomment here to load jquery-ui\n       <link rel="stylesheet" href="http://ajax.googleapis.com/ajax/libs/jqueryui/1.10.3/themes/ui-lightness/jquery-ui.css" type="text/css" media="all" />\n       <script src="http://ajax.googleapis.com/ajax/libs/jqueryui/1.10.3/jquery-ui.min.js" type="text/javascript"></script>\n       uncomment to load jquery-ui //-->\n  <noscript><link href="{{=URL(\'static\', \'css/web2py_bootstrap_nojs.css\')}}" rel="stylesheet" type="text/css" /></noscript>\n  {{block head}}{{end}}\n</head>\n\n<body>\n  <!--Navbar ================================================== -->\n    <div class="row">\n        <div class="col-xs-12 col-sm-12 col-md-12">\n          {{include \'menu.html\'}}\n        </div>\n    </div>\n<!--/Navbar ================================================== -->\n  <div class="flash">{{=response.flash or \'\'}}</div>\n\n  <div class="container">\n    <!-- Masthead ================================================== -->\n    <header class="mastheader row" id="header">\n      {{if response.title:}}\n        <div class="col-xs-12 col-sm-12 col-md-12">\n            <div class="page-header">\n                <h1>\n                    {{=response.title}}\n                    <small>{{=response.subtitle or \'\'}}</small>\n                </h1>\n            </div>\n        </div>\n\t{{pass}}\n    </header>\n\n    <section id="main" class="main row">\n        {{if left_sidebar_enabled:}}\n        <div class="col-xs-3 col-sm-3 col-md-3 left-sidebar">\n            {{block left_sidebar}}\n            <h3>Left Sidebar</h3>\n            <p></p>\n            {{end}}\n        </div>\n        {{pass}}\n\n        <div class="{{=middle_columns}}">\n            {{block center}}\n            {{include}}\n            {{end}}\n        </div>\n\n        {{if right_sidebar_enabled:}}\n        <div class="col-xs-3 col-sm-3 col-md-3">\n            {{block right_sidebar}}\n            <h3>Right Sidebar</h3>\n            <p></p>\n            {{end}}\n        </div>\n        {{pass}}\n    </section><!--/main-->\n\n    <!-- Footer ================================================== -->\n    <div class="row">\n        <footer class="col-xs-12 col-sm-12 col-md-12" id="footer">\n            <div class="container">\n                {{block footer}} <!-- this is default footer -->\n                <div class="copyright pull-left">{{=T(\'Copyright\')}} &#169; {{=request.now.year}}</div>\n                <div id="poweredBy" class="pull-right">\n                    {{=T(\'Powered by\')}}\n                    <a href="http://www.web2py.com/">web2py</a>\n                </div>\n                {{end}}\n            </div>\n        </footer>\n    </div>\n\n  </div> <!-- /container -->\n\n  <!-- The javascript -->\n  <script type="text/javascript" src="http://code.jquery.com/jquery.min.js"></script>\n\n  <script src="https://maxcdn.bootstrapcdn.com/bootstrap/3.2.0/js/bootstrap.min.js"></script>\n  <!--[if lt IE 7 ]>\n      <script src="{{=URL(\'static\',\'js/dd_belatedpng.js\')}}"></script>\n      <script> DD_belatedPNG.fix(\'img, .png_bg\'); //fix any <img> or .png_bg background-images </script>\n      <![endif]-->\n</body>\n</html>\n\n'
p7
sS'snapshot'
p8
(dp9
S'exception'
p10
(dp11
S'__getslice__'
p12
S"<method-wrapper '__getslice__' of exceptions.IOError object>"
p13
sS'__str__'
p14
S"<method-wrapper '__str__' of exceptions.IOError object>"
p15
sS'__reduce__'
p16
S'<built-in method __reduce__ of exceptions.IOError object>'
p17
sS'__dict__'
p18
S'{}'
p19
sS'__sizeof__'
p20
S'<built-in method __sizeof__ of exceptions.IOError object>'
p21
sS'__init__'
p22
S"<method-wrapper '__init__' of exceptions.IOError object>"
p23
sS'__setattr__'
p24
S"<method-wrapper '__setattr__' of exceptions.IOError object>"
p25
sS'__reduce_ex__'
p26
S'<built-in method __reduce_ex__ of exceptions.IOError object>'
p27
sS'__new__'
p28
S'<built-in method __new__ of type object>'
p29
sS'errno'
p30
S'2'
sS'__format__'
p31
S'<built-in method __format__ of exceptions.IOError object>'
p32
sS'__class__'
p33
S"<type 'exceptions.IOError'>"
p34
sS'filename'
p35
S"r'C:\\Users\\Merian Herrera\\Desktop\\web2py\\applications\\super_zapatos\\views\\menu.html'"
p36
sS'__doc__'
p37
S"'I/O operation failed.'"
p38
sS'__getitem__'
p39
S"<method-wrapper '__getitem__' of exceptions.IOError object>"
p40
sS'__setstate__'
p41
S'<built-in method __setstate__ of exceptions.IOError object>'
p42
sS'__getattribute__'
p43
S"<method-wrapper '__getattribute__' of exceptions.IOError object>"
p44
sS'args'
p45
S"(2, 'No such file or directory')"
p46
sS'__subclasshook__'
p47
S'<built-in method __subclasshook__ of type object>'
p48
sS'__unicode__'
p49
S'<built-in method __unicode__ of exceptions.IOError object>'
p50
sS'strerror'
p51
S"'No such file or directory'"
p52
sS'__delattr__'
p53
S"<method-wrapper '__delattr__' of exceptions.IOError object>"
p54
sS'__repr__'
p55
S"<method-wrapper '__repr__' of exceptions.IOError object>"
p56
sS'__hash__'
p57
S"<method-wrapper '__hash__' of exceptions.IOError object>"
p58
ssS'evalue'
p59
S"[Errno 2] No such file or directory: 'C:\\\\Users\\\\Merian Herrera\\\\Desktop\\\\web2py\\\\applications\\\\super_zapatos\\\\views\\\\menu.html'"
p60
sS'frames'
p61
(lp62
(dp63
S'file'
p64
S'C:\\Users\\Merian Herrera\\Desktop\\web2py\\gluon\\template.py'
p65
sS'dump'
p66
(dp67
sS'lnum'
p68
I450
sS'lines'
p69
(dp70
sS'call'
p71
S"(self=<gluon.template.TemplateParser object>, filename='menu.html')"
p72
sS'func'
p73
S'_get_file_text'
p74
sasS'pyver'
p75
S'Python 2.7.6: C:\\Users\\Merian Herrera\\Desktop\\web2py\\web2py.exe (prefix: )'
p76
sS'etype'
p77
S"<type 'exceptions.IOError'>"
p78
sS'date'
p79
S'Sat Sep 13 14:29:05 2014'
p80
sS'locals'
p81
(dp82
S'self'
p83
S'<gluon.template.TemplateParser object>'
p84
sS'filepath'
p85
S"r'C:\\Users\\Merian Herrera\\Desktop\\web2py\\applications\\super_zapatos\\views\\menu.html'"
p86
sS'context'
p87
S"{'A': <class 'gluon.html.A'>, 'ANY_OF': <class 'gluon.validators.ANY_OF'>, 'Auth': <class 'gluon.tools.Auth'>, 'B': <class 'gluon.html.B'>, 'BEAUTIFY': <class 'gluon.html.BEAUTIFY'>, 'BODY': <class 'gluon.html.BODY'>, 'BR': <class 'gluon.html.BR'>, 'BUTTON': <class 'gluon.html.BUTTON'>, 'CAT': <class 'gluon.html.CAT'>, 'CENTER': <class 'gluon.html.CENTER'>, ...}"
p88
sg35
S"'menu.html'"
p89
sssS'traceback'
p90
S'Traceback (most recent call last):\n  File "gluon/template.py", line 450, in _get_file_text\nIOError: [Errno 2] No such file or directory: \'C:\\\\Users\\\\Merian Herrera\\\\Desktop\\\\web2py\\\\applications\\\\super_zapatos\\\\views\\\\menu.html\'\n'
p91
s.